target datalayout = "e-m:e-p270:32:32-p271:32:32-p272:64:64-i64:64-i128:128-f80:128-n8:16:32:64-S128"
target triple = "x86_64-unknown-linux-gnu"

%"class.std::__shared_count" = type { ptr }
%"class.std::shared_ptr.67" = type { %"class.std::__shared_ptr.68" }
%"class.std::__shared_ptr.68" = type { ptr, %"class.std::__shared_count" }
%"class.std::__shared_ptr.76" = type { ptr, %"class.std::__shared_count" }
%"class.facebook::velox::exec::LocalDecodedVector" = type { %"class.std::reference_wrapper", %"class.std::unique_ptr.101" }
%"class.std::reference_wrapper" = type { ptr }
%"class.std::unique_ptr.101" = type { %"struct.std::__uniq_ptr_data.102" }
%"struct.std::__uniq_ptr_data.102" = type { %"class.std::__uniq_ptr_impl.103" }
%"class.std::__uniq_ptr_impl.103" = type { %"class.std::tuple.104" }
%"class.std::tuple.104" = type { %"struct.std::_Tuple_impl.105" }
%"struct.std::_Tuple_impl.105" = type { %"struct.std::_Head_base.108" }
%"struct.std::_Head_base.108" = type { ptr }
%"struct.std::_Vector_base.71" = type { %"struct.std::_Vector_base<std::shared_ptr<facebook::velox::BaseVector>, std::allocator<std::shared_ptr<facebook::velox::BaseVector>>>::_Vector_impl" }
%"struct.std::_Vector_base<std::shared_ptr<facebook::velox::BaseVector>, std::allocator<std::shared_ptr<facebook::velox::BaseVector>>>::_Vector_impl" = type { %"struct.std::_Vector_base<std::shared_ptr<facebook::velox::BaseVector>, std::allocator<std::shared_ptr<facebook::velox::BaseVector>>>::_Vector_impl_data" }
%"struct.std::_Vector_base<std::shared_ptr<facebook::velox::BaseVector>, std::allocator<std::shared_ptr<facebook::velox::BaseVector>>>::_Vector_impl_data" = type { ptr, ptr, ptr }
%"class.facebook::velox::exec::EvalCtx" = type { ptr, ptr, ptr, i8, i8, %"class.std::vector.70", %"class.std::shared_ptr.84", i8, i8, i8, ptr, %"class.std::shared_ptr.87" }
%"class.std::vector.70" = type { %"struct.std::_Vector_base.71" }
%"class.std::shared_ptr.84" = type { %"class.std::__shared_ptr.85" }
%"class.std::__shared_ptr.85" = type { ptr, %"class.std::__shared_count" }
%"class.std::shared_ptr.87" = type { %"class.std::__shared_ptr.88" }
%"class.std::__shared_ptr.88" = type { ptr, %"class.std::__shared_count" }

; Function Attrs: mustprogress nounwind uwtable
define linkonce_odr void @_ZNSt10_Head_baseILm1ESt14default_deleteIN8facebook5velox13DecodedVectorEELb1EEC2Ev(ptr noundef nonnull align 1 dereferenceable(1) %this) unnamed_addr #2 comdat align 2 {
entry:
  %this.addr = alloca ptr, align 8
  store ptr %this, ptr %this.addr, align 8
  ret void
}

; Function Attrs: mustprogress nounwind uwtable
define linkonce_odr void @_ZNSt10_Head_baseILm0EPN8facebook5velox13DecodedVectorELb0EEC2Ev(ptr noundef nonnull align 8 dereferenceable(8) %this) unnamed_addr #2 comdat align 2 {
entry:
  %this.addr = alloca ptr, align 8
  store ptr %this, ptr %this.addr, align 8
  %this1 = load ptr, ptr %this.addr, align 8
  %_M_head_impl = getelementptr inbounds %"struct.std::_Head_base.108", ptr %this1, i32 0, i32 0
  store ptr null, ptr %_M_head_impl, align 8
  ret void
}

; Function Attrs: mustprogress uwtable
define linkonce_odr void @_ZNSt11_Tuple_implILm1EJSt14default_deleteIN8facebook5velox13DecodedVectorEEEEC2Ev(ptr noundef nonnull align 1 dereferenceable(1) %this) unnamed_addr #0 comdat align 2 {
entry:
  %this.addr = alloca ptr, align 8
  store ptr %this, ptr %this.addr, align 8
  %this1 = load ptr, ptr %this.addr, align 8
  call void @_ZNSt10_Head_baseILm1ESt14default_deleteIN8facebook5velox13DecodedVectorEELb1EEC2Ev(ptr noundef nonnull align 1 dereferenceable(1) %this1)
  ret void
}

; Function Attrs: noreturn nounwind uwtable
define linkonce_odr hidden void @__clang_call_terminate(ptr noundef %0) #5 comdat {
  %2 = call ptr @__cxa_begin_catch(ptr %0) #16
  call void @_ZSt9terminatev() #18
  unreachable
}

; Function Attrs: mustprogress uwtable
define linkonce_odr void @_ZNSt11_Tuple_implILm0EJPN8facebook5velox13DecodedVectorESt14default_deleteIS2_EEEC2Ev(ptr noundef nonnull align 8 dereferenceable(8) %this) unnamed_addr #0 comdat align 2 {
entry:
  %this.addr = alloca ptr, align 8
  store ptr %this, ptr %this.addr, align 8
  %this1 = load ptr, ptr %this.addr, align 8
  call void @_ZNSt11_Tuple_implILm1EJSt14default_deleteIN8facebook5velox13DecodedVectorEEEEC2Ev(ptr noundef nonnull align 1 dereferenceable(1) %this1)
  call void @_ZNSt10_Head_baseILm0EPN8facebook5velox13DecodedVectorELb0EEC2Ev(ptr noundef nonnull align 8 dereferenceable(8) %this1)
  ret void
}

; Function Attrs: mustprogress nounwind uwtable
define linkonce_odr void @_ZNSt5tupleIJPN8facebook5velox13DecodedVectorESt14default_deleteIS2_EEEC2ILb1ETnNSt9enable_ifIXclsr17_TupleConstraintsIXT_ES3_S5_EE37__is_implicitly_default_constructibleEEbE4typeELb1EEEv(ptr noundef nonnull align 8 dereferenceable(8) %this) unnamed_addr #2 comdat align 2 personality ptr @__gxx_personality_v0 {
entry:
  %this.addr = alloca ptr, align 8
  store ptr %this, ptr %this.addr, align 8
  %this1 = load ptr, ptr %this.addr, align 8
  invoke void @_ZNSt11_Tuple_implILm0EJPN8facebook5velox13DecodedVectorESt14default_deleteIS2_EEEC2Ev(ptr noundef nonnull align 8 dereferenceable(8) %this1)
          to label %invoke.cont unwind label %terminate.lpad

invoke.cont:                                      ; preds = %entry
  ret void

terminate.lpad:                                   ; preds = %entry
  %0 = landingpad { ptr, i32 }
          catch ptr null
  %1 = extractvalue { ptr, i32 } %0, 0
  call void @__clang_call_terminate(ptr %1) #18
  unreachable
}

; Function Attrs: mustprogress nounwind uwtable
define linkonce_odr void @_ZNSt15__uniq_ptr_implIN8facebook5velox13DecodedVectorESt14default_deleteIS2_EEC2Ev(ptr noundef nonnull align 8 dereferenceable(8) %this) unnamed_addr #2 comdat align 2 {
entry:
  %this.addr = alloca ptr, align 8
  store ptr %this, ptr %this.addr, align 8
  %this1 = load ptr, ptr %this.addr, align 8
  %_M_t = getelementptr inbounds %"class.std::__uniq_ptr_impl.103", ptr %this1, i32 0, i32 0
  call void @_ZNSt5tupleIJPN8facebook5velox13DecodedVectorESt14default_deleteIS2_EEEC2ILb1ETnNSt9enable_ifIXclsr17_TupleConstraintsIXT_ES3_S5_EE37__is_implicitly_default_constructibleEEbE4typeELb1EEEv(ptr noundef nonnull align 8 dereferenceable(8) %_M_t) #16
  ret void
}

; Function Attrs: mustprogress nounwind uwtable
define linkonce_odr void @_ZNSt15__uniq_ptr_dataIN8facebook5velox13DecodedVectorESt14default_deleteIS2_ELb1ELb1EEC2Ev(ptr noundef nonnull align 8 dereferenceable(8) %this) unnamed_addr #2 comdat align 2 {
entry:
  %this.addr = alloca ptr, align 8
  store ptr %this, ptr %this.addr, align 8
  %this1 = load ptr, ptr %this.addr, align 8
  call void @_ZNSt15__uniq_ptr_implIN8facebook5velox13DecodedVectorESt14default_deleteIS2_EEC2Ev(ptr noundef nonnull align 8 dereferenceable(8) %this1) #16
  ret void
}

; Function Attrs: mustprogress nounwind uwtable
define linkonce_odr noundef ptr @_ZNSt17reference_wrapperIN8facebook5velox4core7ExecCtxEE6_S_funERS3_(ptr noundef nonnull align 8 dereferenceable(80) %__r) #2 comdat align 2 {
entry:
  %__r.addr = alloca ptr, align 8
  store ptr %__r, ptr %__r.addr, align 8
  %0 = load ptr, ptr %__r.addr, align 8
  ret ptr %0
}

; Function Attrs: mustprogress nounwind uwtable
define linkonce_odr noundef ptr @_ZNKSt12__shared_ptrIN8facebook5velox10BaseVectorELN9__gnu_cxx12_Lock_policyE2EE3getEv(ptr noundef nonnull align 8 dereferenceable(16) %this) #2 comdat align 2 {
entry:
  %this.addr = alloca ptr, align 8
  store ptr %this, ptr %this.addr, align 8
  %this1 = load ptr, ptr %this.addr, align 8
  %_M_ptr = getelementptr inbounds %"class.std::__shared_ptr.76", ptr %this1, i32 0, i32 0
  %0 = load ptr, ptr %_M_ptr, align 8
  ret ptr %0
}

; Function Attrs: mustprogress uwtable
define linkonce_odr void @_ZN8facebook5velox13DecodedVector6decodeERKNS0_10BaseVectorERKNS0_17SelectivityVectorEb(ptr noundef nonnull align 8 dereferenceable(120) %this, ptr noundef nonnull align 8 dereferenceable(99) %vector, ptr noundef nonnull align 8 dereferenceable(38) %rows, i1 noundef zeroext %loadLazy) #0 comdat align 2 {
entry:
  %this.addr = alloca ptr, align 8
  %vector.addr = alloca ptr, align 8
  %rows.addr = alloca ptr, align 8
  %loadLazy.addr = alloca i8, align 1
  store ptr %this, ptr %this.addr, align 8
  store ptr %vector, ptr %vector.addr, align 8
  store ptr %rows, ptr %rows.addr, align 8
  %frombool = zext i1 %loadLazy to i8
  store i8 %frombool, ptr %loadLazy.addr, align 1
  %this1 = load ptr, ptr %this.addr, align 8
  %0 = load ptr, ptr %vector.addr, align 8
  %1 = load ptr, ptr %rows.addr, align 8
  %2 = load i8, ptr %loadLazy.addr, align 1
  %tobool = trunc i8 %2 to i1
  call void @_ZN8facebook5velox13DecodedVector6decodeERKNS0_10BaseVectorEPKNS0_17SelectivityVectorEb(ptr noundef nonnull align 8 dereferenceable(120) %this1, ptr noundef nonnull align 8 dereferenceable(99) %0, ptr noundef %1, i1 noundef zeroext %tobool)
  ret void
}

; Function Attrs: mustprogress nounwind uwtable
define linkonce_odr void @_ZNSt10unique_ptrIN8facebook5velox13DecodedVectorESt14default_deleteIS2_EEC2IS4_vEEv(ptr noundef nonnull align 8 dereferenceable(8) %this) unnamed_addr #2 comdat align 2 {
entry:
  %this.addr = alloca ptr, align 8
  store ptr %this, ptr %this.addr, align 8
  %this1 = load ptr, ptr %this.addr, align 8
  %_M_t = getelementptr inbounds %"class.std::unique_ptr.101", ptr %this1, i32 0, i32 0
  call void @llvm.memset.p0.i64(ptr align 8 %_M_t, i8 0, i64 8, i1 false)
  call void @_ZNSt15__uniq_ptr_dataIN8facebook5velox13DecodedVectorESt14default_deleteIS2_ELb1ELb1EEC2Ev(ptr noundef nonnull align 8 dereferenceable(8) %_M_t) #16
  ret void
}

; Function Attrs: mustprogress nounwind uwtable
define linkonce_odr void @_ZNSt17reference_wrapperIN8facebook5velox4core7ExecCtxEEC2IRS3_vPS3_EEOT_(ptr noundef nonnull align 8 dereferenceable(8) %this, ptr noundef nonnull align 8 dereferenceable(80) %__uref) unnamed_addr #2 comdat align 2 {
entry:
  %this.addr = alloca ptr, align 8
  %__uref.addr = alloca ptr, align 8
  store ptr %this, ptr %this.addr, align 8
  store ptr %__uref, ptr %__uref.addr, align 8
  %this1 = load ptr, ptr %this.addr, align 8
  %_M_data = getelementptr inbounds %"class.std::reference_wrapper", ptr %this1, i32 0, i32 0
  %0 = load ptr, ptr %__uref.addr, align 8
  %call = call noundef ptr @_ZNSt17reference_wrapperIN8facebook5velox4core7ExecCtxEE6_S_funERS3_(ptr noundef nonnull align 8 dereferenceable(80) %0) #16
  store ptr %call, ptr %_M_data, align 8
  ret void
}

; Function Attrs: mustprogress nounwind uwtable
define linkonce_odr noundef ptr @_ZNK8facebook5velox4exec7EvalCtx7execCtxEv(ptr noundef nonnull align 8 dereferenceable(104) %this) #2 comdat align 2 {
entry:
  %this.addr = alloca ptr, align 8
  store ptr %this, ptr %this.addr, align 8
  %this1 = load ptr, ptr %this.addr, align 8
  %execCtx_ = getelementptr inbounds %"class.facebook::velox::exec::EvalCtx", ptr %this1, i32 0, i32 0
  %0 = load ptr, ptr %execCtx_, align 8
  ret ptr %0
}

; Function Attrs: mustprogress nounwind uwtable
define linkonce_odr noundef ptr @_ZNKSt19__shared_ptr_accessIN8facebook5velox10BaseVectorELN9__gnu_cxx12_Lock_policyE2ELb0ELb0EE6_M_getEv(ptr noundef nonnull align 1 dereferenceable(1) %this) #2 comdat align 2 {
entry:
  %this.addr = alloca ptr, align 8
  store ptr %this, ptr %this.addr, align 8
  %this1 = load ptr, ptr %this.addr, align 8
  %call = call noundef ptr @_ZNKSt12__shared_ptrIN8facebook5velox10BaseVectorELN9__gnu_cxx12_Lock_policyE2EE3getEv(ptr noundef nonnull align 8 dereferenceable(16) %this1) #16
  ret ptr %call
}

; Function Attrs: mustprogress uwtable
define linkonce_odr void @_ZN8facebook5velox4exec18LocalDecodedVectorC2ERKNS1_7EvalCtxERKNS0_10BaseVectorERKNS0_17SelectivityVectorEb(ptr noundef nonnull align 8 dereferenceable(16) %this, ptr noundef nonnull align 8 dereferenceable(104) %context, ptr noundef nonnull align 8 dereferenceable(99) %vector, ptr noundef nonnull align 8 dereferenceable(38) %rows, i1 noundef zeroext %loadLazy) unnamed_addr #0 comdat align 2 personality ptr @__gxx_personality_v0 {
entry:
  %this.addr = alloca ptr, align 8
  %context.addr = alloca ptr, align 8
  %vector.addr = alloca ptr, align 8
  %rows.addr = alloca ptr, align 8
  %loadLazy.addr = alloca i8, align 1
  %exn.slot = alloca ptr, align 8
  %ehselector.slot = alloca i32, align 4
  store ptr %this, ptr %this.addr, align 8
  store ptr %context, ptr %context.addr, align 8
  store ptr %vector, ptr %vector.addr, align 8
  store ptr %rows, ptr %rows.addr, align 8
  %frombool = zext i1 %loadLazy to i8
  store i8 %frombool, ptr %loadLazy.addr, align 1
  %this1 = load ptr, ptr %this.addr, align 8
  %context_ = getelementptr inbounds %"class.facebook::velox::exec::LocalDecodedVector", ptr %this1, i32 0, i32 0
  %0 = load ptr, ptr %context.addr, align 8
  %call = call noundef ptr @_ZNK8facebook5velox4exec7EvalCtx7execCtxEv(ptr noundef nonnull align 8 dereferenceable(104) %0)
  call void @_ZNSt17reference_wrapperIN8facebook5velox4core7ExecCtxEEC2IRS3_vPS3_EEOT_(ptr noundef nonnull align 8 dereferenceable(8) %context_, ptr noundef nonnull align 8 dereferenceable(80) %call) #16
  %vector_ = getelementptr inbounds %"class.facebook::velox::exec::LocalDecodedVector", ptr %this1, i32 0, i32 1
  call void @_ZNSt10unique_ptrIN8facebook5velox13DecodedVectorESt14default_deleteIS2_EEC2IS4_vEEv(ptr noundef nonnull align 8 dereferenceable(8) %vector_) #16
  %call2 = invoke noundef ptr @_ZN8facebook5velox4exec18LocalDecodedVector3getEv(ptr noundef nonnull align 8 dereferenceable(16) %this1)
          to label %invoke.cont unwind label %lpad

invoke.cont:                                      ; preds = %entry
  %1 = load ptr, ptr %vector.addr, align 8
  %2 = load ptr, ptr %rows.addr, align 8
  %3 = load i8, ptr %loadLazy.addr, align 1
  %tobool = trunc i8 %3 to i1
  invoke void @_ZN8facebook5velox13DecodedVector6decodeERKNS0_10BaseVectorERKNS0_17SelectivityVectorEb(ptr noundef nonnull align 8 dereferenceable(120) %call2, ptr noundef nonnull align 8 dereferenceable(99) %1, ptr noundef nonnull align 8 dereferenceable(38) %2, i1 noundef zeroext %tobool)
          to label %invoke.cont3 unwind label %lpad

invoke.cont3:                                     ; preds = %invoke.cont
  ret void

lpad:                                             ; preds = %invoke.cont, %entry
  %4 = landingpad { ptr, i32 }
          cleanup
  %5 = extractvalue { ptr, i32 } %4, 0
  store ptr %5, ptr %exn.slot, align 8
  %6 = extractvalue { ptr, i32 } %4, 1
  store i32 %6, ptr %ehselector.slot, align 4
  call void @_ZNSt10unique_ptrIN8facebook5velox13DecodedVectorESt14default_deleteIS2_EED2Ev(ptr noundef nonnull align 8 dereferenceable(8) %vector_) #16
  br label %eh.resume

eh.resume:                                        ; preds = %lpad
  %exn = load ptr, ptr %exn.slot, align 8
  %sel = load i32, ptr %ehselector.slot, align 4
  %lpad.val = insertvalue { ptr, i32 } poison, ptr %exn, 0
  %lpad.val4 = insertvalue { ptr, i32 } %lpad.val, i32 %sel, 1
  resume { ptr, i32 } %lpad.val4
}

; Function Attrs: mustprogress nounwind uwtable
define linkonce_odr noundef nonnull align 8 dereferenceable(99) ptr @_ZNKSt19__shared_ptr_accessIN8facebook5velox10BaseVectorELN9__gnu_cxx12_Lock_policyE2ELb0ELb0EEdeEv(ptr noundef nonnull align 1 dereferenceable(1) %this) #2 comdat align 2 {
entry:
  %this.addr = alloca ptr, align 8
  store ptr %this, ptr %this.addr, align 8
  %this1 = load ptr, ptr %this.addr, align 8
  br label %do.body

do.body:                                          ; preds = %entry
  br label %do.cond

do.cond:                                          ; preds = %do.body
  br label %do.end

do.end:                                           ; preds = %do.cond
  %call = call noundef ptr @_ZNKSt19__shared_ptr_accessIN8facebook5velox10BaseVectorELN9__gnu_cxx12_Lock_policyE2ELb0ELb0EE6_M_getEv(ptr noundef nonnull align 1 dereferenceable(1) %this1) #16
  ret ptr %call
}

; Function Attrs: mustprogress uwtable
define internal void @_ZNK8facebook5velox9functions12_GLOBAL__N_121FindFirstFunctionBase17prepareInputArrayERKSt10shared_ptrINS0_10BaseVectorEERKNS0_17SelectivityVectorERNS0_4exec7EvalCtxE(ptr noalias sret(%"class.std::shared_ptr.67") align 8 %agg.result, ptr noundef nonnull align 8 dereferenceable(8) %this, ptr noundef nonnull align 8 dereferenceable(16) %input, ptr noundef nonnull align 8 dereferenceable(38) %rows, ptr noundef nonnull align 8 dereferenceable(104) %context) #0 align 2 personality ptr @__gxx_personality_v0 {
entry:
  %result.ptr = alloca ptr, align 8
  %this.addr = alloca ptr, align 8
  %input.addr = alloca ptr, align 8
  %rows.addr = alloca ptr, align 8
  %context.addr = alloca ptr, align 8
  %arrayDecoder = alloca %"class.facebook::velox::exec::LocalDecodedVector", align 8
  %decodedArray = alloca ptr, align 8
  %exn.slot = alloca ptr, align 8
  %ehselector.slot = alloca i32, align 4
  store ptr %agg.result, ptr %result.ptr, align 8
  store ptr %this, ptr %this.addr, align 8
  store ptr %input, ptr %input.addr, align 8
  store ptr %rows, ptr %rows.addr, align 8
  store ptr %context, ptr %context.addr, align 8
  %0 = load ptr, ptr %context.addr, align 8
  %1 = load ptr, ptr %input.addr, align 8
  %call = call noundef nonnull align 8 dereferenceable(99) ptr @_ZNKSt19__shared_ptr_accessIN8facebook5velox10BaseVectorELN9__gnu_cxx12_Lock_policyE2ELb0ELb0EEdeEv(ptr noundef nonnull align 1 dereferenceable(1) %1) #16
  %2 = load ptr, ptr %rows.addr, align 8
  call void @_ZN8facebook5velox4exec18LocalDecodedVectorC2ERKNS1_7EvalCtxERKNS0_10BaseVectorERKNS0_17SelectivityVectorEb(ptr noundef nonnull align 8 dereferenceable(16) %arrayDecoder, ptr noundef nonnull align 8 dereferenceable(104) %0, ptr noundef nonnull align 8 dereferenceable(99) %call, ptr noundef nonnull align 8 dereferenceable(38) %2, i1 noundef zeroext true)
  %call2 = invoke noundef ptr @_ZN8facebook5velox4exec18LocalDecodedVector3getEv(ptr noundef nonnull align 8 dereferenceable(16) %arrayDecoder)
          to label %invoke.cont unwind label %lpad

invoke.cont:                                      ; preds = %entry
  store ptr %call2, ptr %decodedArray, align 8
  %3 = load ptr, ptr %rows.addr, align 8
  %4 = load ptr, ptr %input.addr, align 8
  %5 = load ptr, ptr %decodedArray, align 8
  invoke void @_ZN8facebook5velox9functions12flattenArrayERKNS0_17SelectivityVectorERKSt10shared_ptrINS0_10BaseVectorEERNS0_13DecodedVectorE(ptr sret(%"class.std::shared_ptr.67") align 8 %agg.result, ptr noundef nonnull align 8 dereferenceable(38) %3, ptr noundef nonnull align 8 dereferenceable(16) %4, ptr noundef nonnull align 8 dereferenceable(120) %5)
          to label %invoke.cont3 unwind label %lpad

invoke.cont3:                                     ; preds = %invoke.cont
  call void @_ZN8facebook5velox4exec18LocalDecodedVectorD2Ev(ptr noundef nonnull align 8 dereferenceable(16) %arrayDecoder) #16
  ret void

lpad:                                             ; preds = %invoke.cont, %entry
  %6 = landingpad { ptr, i32 }
          cleanup
  %7 = extractvalue { ptr, i32 } %6, 0
  store ptr %7, ptr %exn.slot, align 8
  %8 = extractvalue { ptr, i32 } %6, 1
  store i32 %8, ptr %ehselector.slot, align 4
  call void @_ZN8facebook5velox4exec18LocalDecodedVectorD2Ev(ptr noundef nonnull align 8 dereferenceable(16) %arrayDecoder) #16
  br label %eh.resume

eh.resume:                                        ; preds = %lpad
  %exn = load ptr, ptr %exn.slot, align 8
  %sel = load i32, ptr %ehselector.slot, align 4
  %lpad.val = insertvalue { ptr, i32 } poison, ptr %exn, 0
  %lpad.val4 = insertvalue { ptr, i32 } %lpad.val, i32 %sel, 1
  resume { ptr, i32 } %lpad.val4
}