; Function Attrs: mustprogress uwtable
define internal fastcc void @_ZNK8facebook5velox9functions12_GLOBAL__N_121FindFirstFunctionBase17prepareInputArrayERKSt10shared_ptrINS0_10BaseVectorEERKNS0_17SelectivityVectorERNS0_4exec7EvalCtxE(ptr noalias align 8 %agg.result, ptr noundef nonnull align 8 dereferenceable(16) %input, ptr noundef nonnull align 8 dereferenceable(38) %rows, ptr %context.0.val) unnamed_addr #0 align 2 personality ptr @__gxx_personality_v0 {
entry:
  %arrayDecoder = alloca %"class.facebook::velox::exec::LocalDecodedVector", align 8
  %0 = load ptr, ptr %input, align 8
  store ptr %context.0.val, ptr %arrayDecoder, align 8
  %vector_.i = getelementptr inbounds i8, ptr %arrayDecoder, i64 8
  store ptr null, ptr %vector_.i, align 8
  %call2.i = invoke noundef ptr @_ZN8facebook5velox4exec18LocalDecodedVector3getEv(ptr noundef nonnull align 8 dereferenceable(16) %arrayDecoder)
          to label %invoke.cont.i unwind label %lpad.i

invoke.cont.i:                                    ; preds = %entry
  invoke void @_ZN8facebook5velox13DecodedVector6decodeERKNS0_10BaseVectorEPKNS0_17SelectivityVectorEb(ptr noundef nonnull align 8 dereferenceable(120) %call2.i, ptr noundef nonnull align 8 dereferenceable(99) %0, ptr noundef nonnull %rows, i1 noundef zeroext true)
          to label %_ZN8facebook5velox4exec18LocalDecodedVectorC2ERKNS1_7EvalCtxERKNS0_10BaseVectorERKNS0_17SelectivityVectorEb.exit unwind label %lpad.i

common.resume:                                    ; preds = %lpad, %lpad.i
  %common.resume.op = phi { ptr, i32 } [ %1, %lpad.i ], [ %2, %lpad ]
  resume { ptr, i32 } %common.resume.op

lpad.i:                                           ; preds = %invoke.cont.i, %entry
  %1 = landingpad { ptr, i32 }
          cleanup
  call void @_ZNSt10unique_ptrIN8facebook5velox13DecodedVectorESt14default_deleteIS2_EED2Ev(ptr noundef nonnull align 8 dereferenceable(8) %vector_.i) #21
  br label %common.resume

_ZN8facebook5velox4exec18LocalDecodedVectorC2ERKNS1_7EvalCtxERKNS0_10BaseVectorERKNS0_17SelectivityVectorEb.exit: ; preds = %invoke.cont.i
  %call2 = invoke noundef ptr @_ZN8facebook5velox4exec18LocalDecodedVector3getEv(ptr noundef nonnull align 8 dereferenceable(16) %arrayDecoder)
          to label %invoke.cont unwind label %lpad

invoke.cont:                                      ; preds = %_ZN8facebook5velox4exec18LocalDecodedVectorC2ERKNS1_7EvalCtxERKNS0_10BaseVectorERKNS0_17SelectivityVectorEb.exit
  invoke void @_ZN8facebook5velox9functions12flattenArrayERKNS0_17SelectivityVectorERKSt10shared_ptrINS0_10BaseVectorEERNS0_13DecodedVectorE(ptr sret(%"class.std::shared_ptr.67") align 8 %agg.result, ptr noundef nonnull align 8 dereferenceable(38) %rows, ptr noundef nonnull align 8 dereferenceable(16) %input, ptr noundef nonnull align 8 dereferenceable(120) %call2)
          to label %invoke.cont3 unwind label %lpad

invoke.cont3:                                     ; preds = %invoke.cont
  call void @_ZN8facebook5velox4exec18LocalDecodedVectorD2Ev(ptr noundef nonnull align 8 dereferenceable(16) %arrayDecoder) #21
  ret void

lpad:                                             ; preds = %invoke.cont, %_ZN8facebook5velox4exec18LocalDecodedVectorC2ERKNS1_7EvalCtxERKNS0_10BaseVectorERKNS0_17SelectivityVectorEb.exit
  %2 = landingpad { ptr, i32 }
          cleanup
  call void @_ZN8facebook5velox4exec18LocalDecodedVectorD2Ev(ptr noundef nonnull align 8 dereferenceable(16) %arrayDecoder) #21
  br label %common.resume
}